; Function Attrs: mustprogress uwtable
define hidden void @_ZNK4nori10ImageBlock8toStringB5cxx11Ev(ptr dead_on_unwind noalias writable sret(%"class.std::__cxx11::basic_string") align 8 %0, ptr noundef nonnull align 8 dereferenceable(128) %1) local_unnamed_addr #5 align 2 personality ptr @__gxx_personality_v0 {
  %3 = alloca %"class.tinyformat::detail::FormatListN.313", align 8
  %4 = alloca %"class.std::__cxx11::basic_ostringstream", align 8
  %5 = alloca %"class.std::__cxx11::basic_string", align 8
  %6 = alloca %"class.std::__cxx11::basic_string", align 8
  %7 = getelementptr inbounds i8, ptr %1, i64 24
  call void @_ZNK4nori6TPointIiLi2EE8toStringB5cxx11Ev(ptr dead_on_unwind nonnull writable sret(%"class.std::__cxx11::basic_string") align 8 %5, ptr noundef nonnull align 4 dereferenceable(8) %7)
  %8 = getelementptr inbounds i8, ptr %1, i64 32
  invoke void @_ZNK4nori7TVectorIiLi2EE8toStringB5cxx11Ev(ptr dead_on_unwind nonnull writable sret(%"class.std::__cxx11::basic_string") align 8 %6, ptr noundef nonnull align 4 dereferenceable(8) %8)
          to label %9 unwind label %21

9:                                                ; preds = %2
  call void @llvm.lifetime.start.p0(i64 376, ptr nonnull %4)
  invoke void @_ZNSt7__cxx1119basic_ostringstreamIcSt11char_traitsIcESaIcEEC1Ev(ptr noundef nonnull align 8 dereferenceable(112) %4)
          to label %.noexc unwind label %23

.noexc:                                           ; preds = %9
  call void @llvm.lifetime.start.p0(i64 64, ptr nonnull %3), !noalias !49
  %10 = getelementptr inbounds i8, ptr %3, i64 16
  store ptr %10, ptr %3, align 8, !alias.scope !52, !noalias !49
  %11 = getelementptr inbounds i8, ptr %3, i64 8
  store i32 2, ptr %11, align 8, !alias.scope !52, !noalias !49
  store ptr %5, ptr %10, align 8, !alias.scope !52, !noalias !49
  %12 = getelementptr inbounds i8, ptr %3, i64 24
  store ptr @_ZN10tinyformat6detail9FormatArg10formatImplINSt7__cxx1112basic_stringIcSt11char_traitsIcESaIcEEEEEvRSoPKcSB_iPKv, ptr %12, align 8, !alias.scope !52, !noalias !49
  %13 = getelementptr inbounds i8, ptr %3, i64 32
  store ptr @_ZN10tinyformat6detail9FormatArg9toIntImplINSt7__cxx1112basic_stringIcSt11char_traitsIcESaIcEEEEEiPKv, ptr %13, align 8, !alias.scope !52, !noalias !49
  %14 = getelementptr inbounds i8, ptr %3, i64 40
  store ptr %6, ptr %14, align 8, !alias.scope !52, !noalias !49
  %15 = getelementptr inbounds i8, ptr %3, i64 48
  store ptr @_ZN10tinyformat6detail9FormatArg10formatImplINSt7__cxx1112basic_stringIcSt11char_traitsIcESaIcEEEEEvRSoPKcSB_iPKv, ptr %15, align 8, !alias.scope !52, !noalias !49
  %16 = getelementptr inbounds i8, ptr %3, i64 56
  store ptr @_ZN10tinyformat6detail9FormatArg9toIntImplINSt7__cxx1112basic_stringIcSt11char_traitsIcESaIcEEEEEiPKv, ptr %16, align 8, !alias.scope !52, !noalias !49
  invoke void @_ZN10tinyformat6detail10formatImplERSoPKcPKNS0_9FormatArgEi(ptr noundef nonnull align 8 dereferenceable(8) %4, ptr noundef nonnull @.str.2, ptr noundef nonnull %10, i32 noundef 2)
          to label %17 unwind label %18, !noalias !49

17:                                               ; preds = %.noexc
  call void @llvm.lifetime.end.p0(i64 64, ptr nonnull %3), !noalias !49
  invoke void @_ZNKSt7__cxx1119basic_ostringstreamIcSt11char_traitsIcESaIcEE3strEv(ptr dead_on_unwind writable sret(%"class.std::__cxx11::basic_string") align 8 %0, ptr noundef nonnull align 8 dereferenceable(112) %4)
          to label %20 unwind label %18

18:                                               ; preds = %17, %.noexc
  %19 = landingpad { ptr, i32 }
          cleanup
  call void @_ZNSt7__cxx1119basic_ostringstreamIcSt11char_traitsIcESaIcEED1Ev(ptr noundef nonnull align 8 dereferenceable(112) %4) #17
  br label %.body

20:                                               ; preds = %17
  call void @_ZNSt7__cxx1119basic_ostringstreamIcSt11char_traitsIcESaIcEED1Ev(ptr noundef nonnull align 8 dereferenceable(112) %4) #17
  call void @llvm.lifetime.end.p0(i64 376, ptr nonnull %4)
  call void @_ZNSt7__cxx1112basic_stringIcSt11char_traitsIcESaIcEED1Ev(ptr noundef nonnull align 8 dereferenceable(32) %6) #17
  call void @_ZNSt7__cxx1112basic_stringIcSt11char_traitsIcESaIcEED1Ev(ptr noundef nonnull align 8 dereferenceable(32) %5) #17
  ret void

21:                                               ; preds = %2
  %22 = landingpad { ptr, i32 }
          cleanup
  br label %25

23:                                               ; preds = %9
  %24 = landingpad { ptr, i32 }
          cleanup
  br label %.body

.body:                                            ; preds = %18, %23
  %eh.lpad-body = phi { ptr, i32 } [ %24, %23 ], [ %19, %18 ]
  call void @_ZNSt7__cxx1112basic_stringIcSt11char_traitsIcESaIcEED1Ev(ptr noundef nonnull align 8 dereferenceable(32) %6) #17
  br label %25

25:                                               ; preds = %.body, %21
  %.pn = phi { ptr, i32 } [ %eh.lpad-body, %.body ], [ %22, %21 ]
  call void @_ZNSt7__cxx1112basic_stringIcSt11char_traitsIcESaIcEED1Ev(ptr noundef nonnull align 8 dereferenceable(32) %5) #17
  resume { ptr, i32 } %.pn
}